; Function Attrs: mustprogress uwtable
define dso_local void @_ZN21btUniformScalingShapeC2EP13btConvexShapef(ptr noundef nonnull align 8 dereferenceable(44) %this, ptr noundef %convexChildShape, float noundef %uniformScalingFactor) unnamed_addr #0 align 2 {
entry:
  tail call void @_ZN13btConvexShapeC2Ev(ptr noundef nonnull align 8 dereferenceable(32) %this)
  store ptr getelementptr inbounds ({ [25 x ptr] }, ptr @_ZTV21btUniformScalingShape, i64 0, i32 0, i64 2), ptr %this, align 8
  %m_childConvexShape = getelementptr inbounds i8, ptr %this, i64 32
  store ptr %convexChildShape, ptr %m_childConvexShape, align 8
  %m_uniformScalingFactor = getelementptr inbounds i8, ptr %this, i64 40
  store float %uniformScalingFactor, ptr %m_uniformScalingFactor, align 8
  %m_shapeType = getelementptr inbounds i8, ptr %this, i64 8
  store i32 14, ptr %m_shapeType, align 8
  ret void
}